target datalayout = "e-m:e-p270:32:32-p271:32:32-p272:64:64-i64:64-i128:128-f80:128-n8:16:32:64-S128"
target triple = "x86_64-pc-linux-gnu"

%struct.lua_State = type { %struct.GCRef, i8, i8, i8, i8, %struct.MRef, %struct.GCRef, ptr, ptr, %struct.MRef, %struct.MRef, %struct.GCRef, %struct.GCRef, ptr, i32 }
%struct.MRef = type { i64 }
%struct.GCRef = type { i64 }
%union.TValue = type { i64 }
%struct.GCfuncC = type { %struct.GCRef, i8, i8, i8, i8, %struct.GCRef, %struct.GCRef, %struct.MRef, ptr, [1 x %union.TValue] }

@.str = private unnamed_addr constant [9 x i8] c"_PRELOAD\00", align 1

; Function Attrs: nounwind uwtable
define hidden void @lj_lib_prereg(ptr noundef %0, ptr noundef %1, ptr noundef %2, ptr noundef %3) #0 {
  %5 = alloca ptr, align 8
  %6 = alloca ptr, align 8
  %7 = alloca ptr, align 8
  %8 = alloca ptr, align 8
  store ptr %0, ptr %5, align 8, !tbaa !4
  store ptr %1, ptr %6, align 8, !tbaa !9
  store ptr %2, ptr %7, align 8, !tbaa !11
  store ptr %3, ptr %8, align 8, !tbaa !19
  %9 = load ptr, ptr %5, align 8, !tbaa !4
  %10 = call ptr @luaL_findtable(ptr noundef %9, i32 noundef -10000, ptr noundef @.str, i32 noundef 4)
  %11 = load ptr, ptr %5, align 8, !tbaa !4
  %12 = load ptr, ptr %7, align 8, !tbaa !11
  call void @lua_pushcclosure(ptr noundef %11, ptr noundef %12, i32 noundef 0)
  %13 = load ptr, ptr %8, align 8, !tbaa !19
  %14 = ptrtoint ptr %13 to i64
  %15 = load ptr, ptr %5, align 8, !tbaa !4
  %16 = getelementptr inbounds nuw %struct.lua_State, ptr %15, i32 0, i32 8
  %17 = load ptr, ptr %16, align 8, !tbaa !28
  %18 = getelementptr inbounds %union.TValue, ptr %17, i64 -1
  %19 = getelementptr inbounds nuw %struct.GCRef, ptr %18, i32 0, i32 0
  %20 = load i64, ptr %19, align 8, !tbaa !23
  %21 = and i64 %20, 140737488355327
  %22 = inttoptr i64 %21 to ptr
  %23 = getelementptr inbounds nuw %struct.GCfuncC, ptr %22, i32 0, i32 5
  %24 = getelementptr inbounds nuw %struct.GCRef, ptr %23, i32 0, i32 0
  store i64 %14, ptr %24, align 8, !tbaa !23
  %25 = load ptr, ptr %5, align 8, !tbaa !4
  %26 = load ptr, ptr %6, align 8, !tbaa !9
  call void @lua_setfield(ptr noundef %25, i32 noundef -2, ptr noundef %26)
  %27 = load ptr, ptr %5, align 8, !tbaa !4
  %28 = getelementptr inbounds nuw %struct.lua_State, ptr %27, i32 0, i32 8
  %29 = load ptr, ptr %28, align 8, !tbaa !28
  %30 = getelementptr inbounds %union.TValue, ptr %29, i32 -1
  store ptr %30, ptr %28, align 8, !tbaa !28
  ret void
}