; Function Attrs: nounwind uwtable
define hidden void @lj_lib_prereg(ptr noundef %0, ptr noundef %1, ptr noundef %2, ptr noundef %3) local_unnamed_addr #0 {
  %5 = tail call ptr @luaL_findtable(ptr noundef %0, i32 noundef -10000, ptr noundef nonnull @.str, i32 noundef 4) #8
  tail call void @lua_pushcclosure(ptr noundef %0, ptr noundef %2, i32 noundef 0) #8
  %6 = ptrtoint ptr %3 to i64
  %7 = getelementptr inbounds nuw i8, ptr %0, i64 40
  %8 = load ptr, ptr %7, align 8, !tbaa !16
  %9 = getelementptr inbounds i8, ptr %8, i64 -8
  %10 = load i64, ptr %9, align 8, !tbaa !14
  %11 = and i64 %10, 140737488355327
  %12 = inttoptr i64 %11 to ptr
  %13 = getelementptr inbounds nuw i8, ptr %12, i64 16
  store i64 %6, ptr %13, align 8, !tbaa !14
  tail call void @lua_setfield(ptr noundef %0, i32 noundef -2, ptr noundef %1) #8
  %14 = load ptr, ptr %7, align 8, !tbaa !16
  %15 = getelementptr inbounds i8, ptr %14, i64 -8
  store ptr %15, ptr %7, align 8, !tbaa !16
  ret void
}